target datalayout = "e-m:e-p270:32:32-p271:32:32-p272:64:64-i64:64-i128:128-f80:128-n8:16:32:64-S128"
target triple = "x86_64-pc-linux-gnu"

%struct.StringInfoData = type { ptr, i32, i32, i32 }
%struct.rusage = type { %struct.timeval, %struct.timeval, %union.anon, %union.anon.0, %union.anon.1, %union.anon.2, %union.anon.3, %union.anon.4, %union.anon.5, %union.anon.6, %union.anon.7, %union.anon.8, %union.anon.9, %union.anon.10, %union.anon.11, %union.anon.12 }
%struct.timeval = type { i64, i64 }
%union.anon = type { i64 }
%union.anon.0 = type { i64 }
%union.anon.1 = type { i64 }
%union.anon.2 = type { i64 }
%union.anon.3 = type { i64 }
%union.anon.4 = type { i64 }
%union.anon.5 = type { i64 }
%union.anon.6 = type { i64 }
%union.anon.7 = type { i64 }
%union.anon.8 = type { i64 }
%union.anon.9 = type { i64 }
%union.anon.10 = type { i64 }
%union.anon.11 = type { i64 }
%union.anon.12 = type { i64 }

@.str.3 = private unnamed_addr constant [11 x i8] c"postgres.c\00", align 1
@Save_r = internal global %struct.rusage zeroinitializer, align 8
@Save_t = internal global %struct.timeval zeroinitializer, align 8
@.str.101 = private unnamed_addr constant [23 x i8] c"! system usage stats:\0A\00", align 1
@.str.102 = private unnamed_addr constant [61 x i8] c"!\09%ld.%06ld s user, %ld.%06ld s system, %ld.%06ld s elapsed\0A\00", align 1
@.str.103 = private unnamed_addr constant [48 x i8] c"!\09[%ld.%06ld s user, %ld.%06ld s system total]\0A\00", align 1
@.str.104 = private unnamed_addr constant [28 x i8] c"!\09%ld kB max resident size\0A\00", align 1
@.str.105 = private unnamed_addr constant [46 x i8] c"!\09%ld/%ld [%ld/%ld] filesystem blocks in/out\0A\00", align 1
@.str.106 = private unnamed_addr constant [59 x i8] c"!\09%ld/%ld [%ld/%ld] page faults/reclaims, %ld [%ld] swaps\0A\00", align 1
@.str.107 = private unnamed_addr constant [64 x i8] c"!\09%ld [%ld] signals rcvd, %ld/%ld [%ld/%ld] messages rcvd/sent\0A\00", align 1
@.str.108 = private unnamed_addr constant [60 x i8] c"!\09%ld/%ld [%ld/%ld] voluntary/involuntary context switches\0A\00", align 1
@.str.109 = private unnamed_addr constant [3 x i8] c"%s\00", align 1
@__func__.ShowUsage = private unnamed_addr constant [10 x i8] c"ShowUsage\00", align 1

; Function Attrs: nounwind uwtable
define dso_local void @ShowUsage(ptr noundef %0) #0 {
  %2 = alloca ptr, align 8
  %3 = alloca %struct.StringInfoData, align 8
  %4 = alloca %struct.timeval, align 8
  %5 = alloca %struct.timeval, align 8
  %6 = alloca %struct.timeval, align 8
  %7 = alloca %struct.rusage, align 8
  store ptr %0, ptr %2, align 8
  call void @llvm.lifetime.start.p0(i64 24, ptr %3) #16
  call void @llvm.lifetime.start.p0(i64 16, ptr %4) #16
  call void @llvm.lifetime.start.p0(i64 16, ptr %5) #16
  call void @llvm.lifetime.start.p0(i64 16, ptr %6) #16
  call void @llvm.lifetime.start.p0(i64 144, ptr %7) #16
  %8 = call i32 @getrusage(i32 noundef 0, ptr noundef %7) #16
  %9 = call i32 @gettimeofday(ptr noundef %6, ptr noundef null) #16
  %10 = getelementptr inbounds nuw %struct.rusage, ptr %7, i32 0, i32 0
  call void @llvm.memcpy.p0.p0.i64(ptr align 8 %4, ptr align 8 %10, i64 16, i1 false)
  %11 = getelementptr inbounds nuw %struct.rusage, ptr %7, i32 0, i32 1
  call void @llvm.memcpy.p0.p0.i64(ptr align 8 %5, ptr align 8 %11, i64 16, i1 false)
  %12 = getelementptr inbounds nuw %struct.timeval, ptr %6, i32 0, i32 1
  %13 = load i64, ptr %12, align 8
  %14 = load i64, ptr getelementptr inbounds nuw (%struct.timeval, ptr @Save_t, i32 0, i32 1), align 8
  %15 = icmp slt i64 %13, %14
  br i1 %15, label %16, label %23

16:                                               ; preds = %1
  %17 = getelementptr inbounds nuw %struct.timeval, ptr %6, i32 0, i32 0
  %18 = load i64, ptr %17, align 8
  %19 = add i64 %18, -1
  store i64 %19, ptr %17, align 8
  %20 = getelementptr inbounds nuw %struct.timeval, ptr %6, i32 0, i32 1
  %21 = load i64, ptr %20, align 8
  %22 = add i64 %21, 1000000
  store i64 %22, ptr %20, align 8
  br label %23

23:                                               ; preds = %16, %1
  %24 = getelementptr inbounds nuw %struct.rusage, ptr %7, i32 0, i32 0
  %25 = getelementptr inbounds nuw %struct.timeval, ptr %24, i32 0, i32 1
  %26 = load i64, ptr %25, align 8
  %27 = load i64, ptr getelementptr inbounds nuw (%struct.timeval, ptr @Save_r, i32 0, i32 1), align 8
  %28 = icmp slt i64 %26, %27
  br i1 %28, label %29, label %38

29:                                               ; preds = %23
  %30 = getelementptr inbounds nuw %struct.rusage, ptr %7, i32 0, i32 0
  %31 = getelementptr inbounds nuw %struct.timeval, ptr %30, i32 0, i32 0
  %32 = load i64, ptr %31, align 8
  %33 = add i64 %32, -1
  store i64 %33, ptr %31, align 8
  %34 = getelementptr inbounds nuw %struct.rusage, ptr %7, i32 0, i32 0
  %35 = getelementptr inbounds nuw %struct.timeval, ptr %34, i32 0, i32 1
  %36 = load i64, ptr %35, align 8
  %37 = add i64 %36, 1000000
  store i64 %37, ptr %35, align 8
  br label %38

38:                                               ; preds = %29, %23
  %39 = getelementptr inbounds nuw %struct.rusage, ptr %7, i32 0, i32 1
  %40 = getelementptr inbounds nuw %struct.timeval, ptr %39, i32 0, i32 1
  %41 = load i64, ptr %40, align 8
  %42 = load i64, ptr getelementptr inbounds nuw (%struct.timeval, ptr getelementptr inbounds nuw (%struct.rusage, ptr @Save_r, i32 0, i32 1), i32 0, i32 1), align 8
  %43 = icmp slt i64 %41, %42
  br i1 %43, label %44, label %53

44:                                               ; preds = %38
  %45 = getelementptr inbounds nuw %struct.rusage, ptr %7, i32 0, i32 1
  %46 = getelementptr inbounds nuw %struct.timeval, ptr %45, i32 0, i32 0
  %47 = load i64, ptr %46, align 8
  %48 = add i64 %47, -1
  store i64 %48, ptr %46, align 8
  %49 = getelementptr inbounds nuw %struct.rusage, ptr %7, i32 0, i32 1
  %50 = getelementptr inbounds nuw %struct.timeval, ptr %49, i32 0, i32 1
  %51 = load i64, ptr %50, align 8
  %52 = add i64 %51, 1000000
  store i64 %52, ptr %50, align 8
  br label %53

53:                                               ; preds = %44, %38
  call void @initStringInfo(ptr noundef %3)
  call void @appendStringInfoString(ptr noundef %3, ptr noundef @.str.101)
  %54 = getelementptr inbounds nuw %struct.rusage, ptr %7, i32 0, i32 0
  %55 = getelementptr inbounds nuw %struct.timeval, ptr %54, i32 0, i32 0
  %56 = load i64, ptr %55, align 8
  %57 = load i64, ptr @Save_r, align 8
  %58 = sub i64 %56, %57
  %59 = getelementptr inbounds nuw %struct.rusage, ptr %7, i32 0, i32 0
  %60 = getelementptr inbounds nuw %struct.timeval, ptr %59, i32 0, i32 1
  %61 = load i64, ptr %60, align 8
  %62 = load i64, ptr getelementptr inbounds nuw (%struct.timeval, ptr @Save_r, i32 0, i32 1), align 8
  %63 = sub i64 %61, %62
  %64 = getelementptr inbounds nuw %struct.rusage, ptr %7, i32 0, i32 1
  %65 = getelementptr inbounds nuw %struct.timeval, ptr %64, i32 0, i32 0
  %66 = load i64, ptr %65, align 8
  %67 = load i64, ptr getelementptr inbounds nuw (%struct.rusage, ptr @Save_r, i32 0, i32 1), align 8
  %68 = sub i64 %66, %67
  %69 = getelementptr inbounds nuw %struct.rusage, ptr %7, i32 0, i32 1
  %70 = getelementptr inbounds nuw %struct.timeval, ptr %69, i32 0, i32 1
  %71 = load i64, ptr %70, align 8
  %72 = load i64, ptr getelementptr inbounds nuw (%struct.timeval, ptr getelementptr inbounds nuw (%struct.rusage, ptr @Save_r, i32 0, i32 1), i32 0, i32 1), align 8
  %73 = sub i64 %71, %72
  %74 = getelementptr inbounds nuw %struct.timeval, ptr %6, i32 0, i32 0
  %75 = load i64, ptr %74, align 8
  %76 = load i64, ptr @Save_t, align 8
  %77 = sub i64 %75, %76
  %78 = getelementptr inbounds nuw %struct.timeval, ptr %6, i32 0, i32 1
  %79 = load i64, ptr %78, align 8
  %80 = load i64, ptr getelementptr inbounds nuw (%struct.timeval, ptr @Save_t, i32 0, i32 1), align 8
  %81 = sub i64 %79, %80
  call void (ptr, ptr, ...) @appendStringInfo(ptr noundef %3, ptr noundef @.str.102, i64 noundef %58, i64 noundef %63, i64 noundef %68, i64 noundef %73, i64 noundef %77, i64 noundef %81)
  %82 = getelementptr inbounds nuw %struct.timeval, ptr %4, i32 0, i32 0
  %83 = load i64, ptr %82, align 8
  %84 = getelementptr inbounds nuw %struct.timeval, ptr %4, i32 0, i32 1
  %85 = load i64, ptr %84, align 8
  %86 = getelementptr inbounds nuw %struct.timeval, ptr %5, i32 0, i32 0
  %87 = load i64, ptr %86, align 8
  %88 = getelementptr inbounds nuw %struct.timeval, ptr %5, i32 0, i32 1
  %89 = load i64, ptr %88, align 8
  call void (ptr, ptr, ...) @appendStringInfo(ptr noundef %3, ptr noundef @.str.103, i64 noundef %83, i64 noundef %85, i64 noundef %87, i64 noundef %89)
  %90 = getelementptr inbounds nuw %struct.rusage, ptr %7, i32 0, i32 2
  %91 = load i64, ptr %90, align 8
  call void (ptr, ptr, ...) @appendStringInfo(ptr noundef %3, ptr noundef @.str.104, i64 noundef %91)
  %92 = getelementptr inbounds nuw %struct.rusage, ptr %7, i32 0, i32 9
  %93 = load i64, ptr %92, align 8
  %94 = load i64, ptr getelementptr inbounds nuw (%struct.rusage, ptr @Save_r, i32 0, i32 9), align 8
  %95 = sub i64 %93, %94
  %96 = getelementptr inbounds nuw %struct.rusage, ptr %7, i32 0, i32 10
  %97 = load i64, ptr %96, align 8
  %98 = load i64, ptr getelementptr inbounds nuw (%struct.rusage, ptr @Save_r, i32 0, i32 10), align 8
  %99 = sub i64 %97, %98
  %100 = getelementptr inbounds nuw %struct.rusage, ptr %7, i32 0, i32 9
  %101 = load i64, ptr %100, align 8
  %102 = getelementptr inbounds nuw %struct.rusage, ptr %7, i32 0, i32 10
  %103 = load i64, ptr %102, align 8
  call void (ptr, ptr, ...) @appendStringInfo(ptr noundef %3, ptr noundef @.str.105, i64 noundef %95, i64 noundef %99, i64 noundef %101, i64 noundef %103)
  %104 = getelementptr inbounds nuw %struct.rusage, ptr %7, i32 0, i32 7
  %105 = load i64, ptr %104, align 8
  %106 = load i64, ptr getelementptr inbounds nuw (%struct.rusage, ptr @Save_r, i32 0, i32 7), align 8
  %107 = sub i64 %105, %106
  %108 = getelementptr inbounds nuw %struct.rusage, ptr %7, i32 0, i32 6
  %109 = load i64, ptr %108, align 8
  %110 = load i64, ptr getelementptr inbounds nuw (%struct.rusage, ptr @Save_r, i32 0, i32 6), align 8
  %111 = sub i64 %109, %110
  %112 = getelementptr inbounds nuw %struct.rusage, ptr %7, i32 0, i32 7
  %113 = load i64, ptr %112, align 8
  %114 = getelementptr inbounds nuw %struct.rusage, ptr %7, i32 0, i32 6
  %115 = load i64, ptr %114, align 8
  %116 = getelementptr inbounds nuw %struct.rusage, ptr %7, i32 0, i32 8
  %117 = load i64, ptr %116, align 8
  %118 = load i64, ptr getelementptr inbounds nuw (%struct.rusage, ptr @Save_r, i32 0, i32 8), align 8
  %119 = sub i64 %117, %118
  %120 = getelementptr inbounds nuw %struct.rusage, ptr %7, i32 0, i32 8
  %121 = load i64, ptr %120, align 8
  call void (ptr, ptr, ...) @appendStringInfo(ptr noundef %3, ptr noundef @.str.106, i64 noundef %107, i64 noundef %111, i64 noundef %113, i64 noundef %115, i64 noundef %119, i64 noundef %121)
  %122 = getelementptr inbounds nuw %struct.rusage, ptr %7, i32 0, i32 13
  %123 = load i64, ptr %122, align 8
  %124 = load i64, ptr getelementptr inbounds nuw (%struct.rusage, ptr @Save_r, i32 0, i32 13), align 8
  %125 = sub i64 %123, %124
  %126 = getelementptr inbounds nuw %struct.rusage, ptr %7, i32 0, i32 13
  %127 = load i64, ptr %126, align 8
  %128 = getelementptr inbounds nuw %struct.rusage, ptr %7, i32 0, i32 12
  %129 = load i64, ptr %128, align 8
  %130 = load i64, ptr getelementptr inbounds nuw (%struct.rusage, ptr @Save_r, i32 0, i32 12), align 8
  %131 = sub i64 %129, %130
  %132 = getelementptr inbounds nuw %struct.rusage, ptr %7, i32 0, i32 11
  %133 = load i64, ptr %132, align 8
  %134 = load i64, ptr getelementptr inbounds nuw (%struct.rusage, ptr @Save_r, i32 0, i32 11), align 8
  %135 = sub i64 %133, %134
  %136 = getelementptr inbounds nuw %struct.rusage, ptr %7, i32 0, i32 12
  %137 = load i64, ptr %136, align 8
  %138 = getelementptr inbounds nuw %struct.rusage, ptr %7, i32 0, i32 11
  %139 = load i64, ptr %138, align 8
  call void (ptr, ptr, ...) @appendStringInfo(ptr noundef %3, ptr noundef @.str.107, i64 noundef %125, i64 noundef %127, i64 noundef %131, i64 noundef %135, i64 noundef %137, i64 noundef %139)
  %140 = getelementptr inbounds nuw %struct.rusage, ptr %7, i32 0, i32 14
  %141 = load i64, ptr %140, align 8
  %142 = load i64, ptr getelementptr inbounds nuw (%struct.rusage, ptr @Save_r, i32 0, i32 14), align 8
  %143 = sub i64 %141, %142
  %144 = getelementptr inbounds nuw %struct.rusage, ptr %7, i32 0, i32 15
  %145 = load i64, ptr %144, align 8
  %146 = load i64, ptr getelementptr inbounds nuw (%struct.rusage, ptr @Save_r, i32 0, i32 15), align 8
  %147 = sub i64 %145, %146
  %148 = getelementptr inbounds nuw %struct.rusage, ptr %7, i32 0, i32 14
  %149 = load i64, ptr %148, align 8
  %150 = getelementptr inbounds nuw %struct.rusage, ptr %7, i32 0, i32 15
  %151 = load i64, ptr %150, align 8
  call void (ptr, ptr, ...) @appendStringInfo(ptr noundef %3, ptr noundef @.str.108, i64 noundef %143, i64 noundef %147, i64 noundef %149, i64 noundef %151)
  %152 = getelementptr inbounds nuw %struct.StringInfoData, ptr %3, i32 0, i32 0
  %153 = load ptr, ptr %152, align 8
  %154 = getelementptr inbounds nuw %struct.StringInfoData, ptr %3, i32 0, i32 1
  %155 = load i32, ptr %154, align 8
  %156 = sub i32 %155, 1
  %157 = sext i32 %156 to i64
  %158 = getelementptr inbounds i8, ptr %153, i64 %157
  %159 = load i8, ptr %158, align 1
  %160 = sext i8 %159 to i32
  %161 = icmp eq i32 %160, 10
  br i1 %161, label %162, label %170

162:                                              ; preds = %53
  %163 = getelementptr inbounds nuw %struct.StringInfoData, ptr %3, i32 0, i32 0
  %164 = load ptr, ptr %163, align 8
  %165 = getelementptr inbounds nuw %struct.StringInfoData, ptr %3, i32 0, i32 1
  %166 = load i32, ptr %165, align 8
  %167 = add i32 %166, -1
  store i32 %167, ptr %165, align 8
  %168 = sext i32 %167 to i64
  %169 = getelementptr inbounds i8, ptr %164, i64 %168
  store i8 0, ptr %169, align 1
  br label %170

170:                                              ; preds = %162, %53
  br label %171

171:                                              ; preds = %170
  br i1 false, label %172, label %174

172:                                              ; preds = %171
  %173 = call zeroext i1 @errstart_cold(i32 noundef 15, ptr noundef null) #18
  br i1 %173, label %176, label %182

174:                                              ; preds = %171
  %175 = call zeroext i1 @errstart(i32 noundef 15, ptr noundef null)
  br i1 %175, label %176, label %182

176:                                              ; preds = %174, %172
  %177 = load ptr, ptr %2, align 8
  %178 = call i32 (ptr, ...) @errmsg_internal(ptr noundef @.str.109, ptr noundef %177)
  %179 = getelementptr inbounds nuw %struct.StringInfoData, ptr %3, i32 0, i32 0
  %180 = load ptr, ptr %179, align 8
  %181 = call i32 (ptr, ...) @errdetail_internal(ptr noundef @.str.109, ptr noundef %180)
  call void @errfinish(ptr noundef @.str.3, i32 noundef 5084, ptr noundef @__func__.ShowUsage)
  br label %182

182:                                              ; preds = %176, %174, %172
  br label %183

183:                                              ; preds = %182
  br label %184

184:                                              ; preds = %183
  %185 = getelementptr inbounds nuw %struct.StringInfoData, ptr %3, i32 0, i32 0
  %186 = load ptr, ptr %185, align 8
  call void @pfree(ptr noundef %186)
  call void @llvm.lifetime.end.p0(i64 144, ptr %7) #16
  call void @llvm.lifetime.end.p0(i64 16, ptr %6) #16
  call void @llvm.lifetime.end.p0(i64 16, ptr %5) #16
  call void @llvm.lifetime.end.p0(i64 16, ptr %4) #16
  call void @llvm.lifetime.end.p0(i64 24, ptr %3) #16
  ret void
}