; Function Attrs: nounwind uwtable
define dso_local void @ShowUsage(ptr noundef %0) local_unnamed_addr #0 {
  %2 = alloca %struct.StringInfoData, align 8
  %3 = alloca %struct.timeval, align 8
  %4 = alloca %struct.rusage, align 8
  call void @llvm.lifetime.start.p0(i64 24, ptr nonnull %2) #22
  call void @llvm.lifetime.start.p0(i64 16, ptr nonnull %3) #22
  call void @llvm.lifetime.start.p0(i64 144, ptr nonnull %4) #22
  %5 = call i32 @getrusage(i32 noundef 0, ptr noundef nonnull %4) #22
  %6 = call i32 @gettimeofday(ptr noundef nonnull %3, ptr noundef null) #22
  %.sroa.01.0.copyload = load i64, ptr %4, align 8
  %.sroa.42.0..sroa_idx = getelementptr inbounds nuw i8, ptr %4, i64 8
  %.sroa.42.0.copyload = load i64, ptr %.sroa.42.0..sroa_idx, align 8
  %7 = getelementptr inbounds nuw i8, ptr %4, i64 16
  %.sroa.0.0.copyload = load i64, ptr %7, align 8
  %.sroa.4.0..sroa_idx = getelementptr inbounds nuw i8, ptr %4, i64 24
  %.sroa.4.0.copyload = load i64, ptr %.sroa.4.0..sroa_idx, align 8
  %8 = getelementptr inbounds nuw i8, ptr %3, i64 8
  %9 = load i64, ptr %8, align 8
  %10 = load i64, ptr getelementptr inbounds nuw (i8, ptr @Save_t, i64 8), align 8
  %11 = icmp slt i64 %9, %10
  br i1 %11, label %12, label %16

12:                                               ; preds = %1
  %13 = load i64, ptr %3, align 8
  %14 = add i64 %13, -1
  store i64 %14, ptr %3, align 8
  %15 = add i64 %9, 1000000
  br label %16

16:                                               ; preds = %12, %1
  %17 = phi i64 [ %15, %12 ], [ %9, %1 ]
  %18 = load i64, ptr getelementptr inbounds nuw (i8, ptr @Save_r, i64 8), align 8
  %19 = icmp slt i64 %.sroa.42.0.copyload, %18
  br i1 %19, label %20, label %23

20:                                               ; preds = %16
  %21 = add i64 %.sroa.01.0.copyload, -1
  store i64 %21, ptr %4, align 8
  %22 = add i64 %.sroa.42.0.copyload, 1000000
  store i64 %22, ptr %.sroa.42.0..sroa_idx, align 8
  br label %23

23:                                               ; preds = %20, %16
  %24 = load i64, ptr getelementptr inbounds nuw (i8, ptr @Save_r, i64 24), align 8
  %25 = icmp slt i64 %.sroa.4.0.copyload, %24
  br i1 %25, label %26, label %29

26:                                               ; preds = %23
  %27 = add i64 %.sroa.0.0.copyload, -1
  store i64 %27, ptr %7, align 8
  %28 = add i64 %.sroa.4.0.copyload, 1000000
  store i64 %28, ptr %.sroa.4.0..sroa_idx, align 8
  br label %29

29:                                               ; preds = %26, %23
  call void @initStringInfo(ptr noundef nonnull %2) #22
  call void @appendStringInfoString(ptr noundef nonnull %2, ptr noundef nonnull @.str.101) #22
  %30 = load i64, ptr %4, align 8
  %31 = load i64, ptr @Save_r, align 8
  %32 = sub i64 %30, %31
  %33 = load i64, ptr %.sroa.42.0..sroa_idx, align 8
  %34 = load i64, ptr getelementptr inbounds nuw (i8, ptr @Save_r, i64 8), align 8
  %35 = sub i64 %33, %34
  %36 = load i64, ptr %7, align 8
  %37 = load i64, ptr getelementptr inbounds nuw (i8, ptr @Save_r, i64 16), align 8
  %38 = sub i64 %36, %37
  %39 = load i64, ptr %.sroa.4.0..sroa_idx, align 8
  %40 = load i64, ptr getelementptr inbounds nuw (i8, ptr @Save_r, i64 24), align 8
  %41 = sub i64 %39, %40
  %42 = load i64, ptr %3, align 8
  %43 = load i64, ptr @Save_t, align 8
  %44 = sub i64 %42, %43
  %45 = load i64, ptr getelementptr inbounds nuw (i8, ptr @Save_t, i64 8), align 8
  %46 = sub i64 %17, %45
  call void (ptr, ptr, ...) @appendStringInfo(ptr noundef nonnull %2, ptr noundef nonnull @.str.102, i64 noundef %32, i64 noundef %35, i64 noundef %38, i64 noundef %41, i64 noundef %44, i64 noundef %46) #22
  call void (ptr, ptr, ...) @appendStringInfo(ptr noundef nonnull %2, ptr noundef nonnull @.str.103, i64 noundef %.sroa.01.0.copyload, i64 noundef %.sroa.42.0.copyload, i64 noundef %.sroa.0.0.copyload, i64 noundef %.sroa.4.0.copyload) #22
  %47 = getelementptr inbounds nuw i8, ptr %4, i64 32
  %48 = load i64, ptr %47, align 8
  call void (ptr, ptr, ...) @appendStringInfo(ptr noundef nonnull %2, ptr noundef nonnull @.str.104, i64 noundef %48) #22
  %49 = getelementptr inbounds nuw i8, ptr %4, i64 88
  %50 = load i64, ptr %49, align 8
  %51 = load i64, ptr getelementptr inbounds nuw (i8, ptr @Save_r, i64 88), align 8
  %52 = sub i64 %50, %51
  %53 = getelementptr inbounds nuw i8, ptr %4, i64 96
  %54 = load i64, ptr %53, align 8
  %55 = load i64, ptr getelementptr inbounds nuw (i8, ptr @Save_r, i64 96), align 8
  %56 = sub i64 %54, %55
  call void (ptr, ptr, ...) @appendStringInfo(ptr noundef nonnull %2, ptr noundef nonnull @.str.105, i64 noundef %52, i64 noundef %56, i64 noundef %50, i64 noundef %54) #22
  %57 = getelementptr inbounds nuw i8, ptr %4, i64 72
  %58 = load i64, ptr %57, align 8
  %59 = load i64, ptr getelementptr inbounds nuw (i8, ptr @Save_r, i64 72), align 8
  %60 = sub i64 %58, %59
  %61 = getelementptr inbounds nuw i8, ptr %4, i64 64
  %62 = load i64, ptr %61, align 8
  %63 = load i64, ptr getelementptr inbounds nuw (i8, ptr @Save_r, i64 64), align 8
  %64 = sub i64 %62, %63
  %65 = getelementptr inbounds nuw i8, ptr %4, i64 80
  %66 = load i64, ptr %65, align 8
  %67 = load i64, ptr getelementptr inbounds nuw (i8, ptr @Save_r, i64 80), align 8
  %68 = sub i64 %66, %67
  call void (ptr, ptr, ...) @appendStringInfo(ptr noundef nonnull %2, ptr noundef nonnull @.str.106, i64 noundef %60, i64 noundef %64, i64 noundef %58, i64 noundef %62, i64 noundef %68, i64 noundef %66) #22
  %69 = getelementptr inbounds nuw i8, ptr %4, i64 120
  %70 = load i64, ptr %69, align 8
  %71 = load i64, ptr getelementptr inbounds nuw (i8, ptr @Save_r, i64 120), align 8
  %72 = sub i64 %70, %71
  %73 = getelementptr inbounds nuw i8, ptr %4, i64 112
  %74 = load i64, ptr %73, align 8
  %75 = load i64, ptr getelementptr inbounds nuw (i8, ptr @Save_r, i64 112), align 8
  %76 = sub i64 %74, %75
  %77 = getelementptr inbounds nuw i8, ptr %4, i64 104
  %78 = load i64, ptr %77, align 8
  %79 = load i64, ptr getelementptr inbounds nuw (i8, ptr @Save_r, i64 104), align 8
  %80 = sub i64 %78, %79
  call void (ptr, ptr, ...) @appendStringInfo(ptr noundef nonnull %2, ptr noundef nonnull @.str.107, i64 noundef %72, i64 noundef %70, i64 noundef %76, i64 noundef %80, i64 noundef %74, i64 noundef %78) #22
  %81 = getelementptr inbounds nuw i8, ptr %4, i64 128
  %82 = load i64, ptr %81, align 8
  %83 = load i64, ptr getelementptr inbounds nuw (i8, ptr @Save_r, i64 128), align 8
  %84 = sub i64 %82, %83
  %85 = getelementptr inbounds nuw i8, ptr %4, i64 136
  %86 = load i64, ptr %85, align 8
  %87 = load i64, ptr getelementptr inbounds nuw (i8, ptr @Save_r, i64 136), align 8
  %88 = sub i64 %86, %87
  call void (ptr, ptr, ...) @appendStringInfo(ptr noundef nonnull %2, ptr noundef nonnull @.str.108, i64 noundef %84, i64 noundef %88, i64 noundef %82, i64 noundef %86) #22
  %89 = load ptr, ptr %2, align 8
  %90 = getelementptr inbounds nuw i8, ptr %2, i64 8
  %91 = load i32, ptr %90, align 8
  %92 = add i32 %91, -1
  %93 = sext i32 %92 to i64
  %94 = getelementptr inbounds i8, ptr %89, i64 %93
  %95 = load i8, ptr %94, align 1
  %96 = icmp eq i8 %95, 10
  br i1 %96, label %97, label %98

97:                                               ; preds = %29
  store i32 %92, ptr %90, align 8
  store i8 0, ptr %94, align 1
  br label %98

98:                                               ; preds = %97, %29
  %99 = call zeroext i1 @errstart(i32 noundef 15, ptr noundef null) #22
  br i1 %99, label %100, label %104

100:                                              ; preds = %98
  %101 = call i32 (ptr, ...) @errmsg_internal(ptr noundef nonnull @.str.109, ptr noundef %0) #22
  %102 = load ptr, ptr %2, align 8
  %103 = call i32 (ptr, ...) @errdetail_internal(ptr noundef nonnull @.str.109, ptr noundef %102) #22
  call void @errfinish(ptr noundef nonnull @.str.3, i32 noundef 5084, ptr noundef nonnull @__func__.ShowUsage) #22
  br label %104

104:                                              ; preds = %100, %98
  %105 = load ptr, ptr %2, align 8
  call void @pfree(ptr noundef %105) #22
  call void @llvm.lifetime.end.p0(i64 144, ptr nonnull %4) #22
  call void @llvm.lifetime.end.p0(i64 16, ptr nonnull %3) #22
  call void @llvm.lifetime.end.p0(i64 24, ptr nonnull %2) #22
  ret void
}